#include <math.h>
#include <stdio.h>
#include <stdlib.h>
#include <string.h>

void main()
{
	int i,j,k,m,n,a[100];
	int *p;
	scanf("%d %d",&n,&m);
	for(i=0;i<n;i++)
		scanf("%d",&a[i]);
	for(j=1;j<=m;j++)
	{
		p=a+n-1;
		k=*p;
		for(i=1;i<n;i++)
		{
			*p=*(p-1);
			p--;
		}
		*p=k;
	}
	printf("%d",a[0]);
	for(i=1;i<n;i++)
		printf(" %d",a[i]);
}