; ModuleID = '52/1242.c'
source_filename = "52/1242.c"
target datalayout = "e-m:e-p270:32:32-p271:32:32-p272:64:64-i64:64-f80:128-n8:16:32:64-S128"
target triple = "x86_64-pc-linux-gnu"

@.str = private unnamed_addr constant [6 x i8] c"%d %d\00", align 1
@.str.1 = private unnamed_addr constant [3 x i8] c"%d\00", align 1
@.str.2 = private unnamed_addr constant [4 x i8] c" %d\00", align 1

; Function Attrs: noinline nounwind uwtable
define dso_local void @main() #0 {
  %1 = alloca i32, align 4
  %2 = alloca i32, align 4
  %3 = alloca i32, align 4
  %4 = alloca i32, align 4
  %5 = alloca i32, align 4
  %6 = alloca [100 x i32], align 16
  %7 = alloca i32*, align 8
  %8 = call i32 (i8*, ...) @__isoc99_scanf(i8* getelementptr inbounds ([6 x i8], [6 x i8]* @.str, i64 0, i64 0), i32* %5, i32* %4)
  store i32 0, i32* %1, align 4
  br label %9

9:                                                ; preds = %18, %0
  %10 = load i32, i32* %1, align 4
  %11 = load i32, i32* %5, align 4
  %12 = icmp slt i32 %10, %11
  br i1 %12, label %13, label %21

13:                                               ; preds = %9
  %14 = load i32, i32* %1, align 4
  %15 = sext i32 %14 to i64
  %16 = getelementptr inbounds [100 x i32], [100 x i32]* %6, i64 0, i64 %15
  %17 = call i32 (i8*, ...) @__isoc99_scanf(i8* getelementptr inbounds ([3 x i8], [3 x i8]* @.str.1, i64 0, i64 0), i32* %16)
  br label %18

18:                                               ; preds = %13
  %19 = load i32, i32* %1, align 4
  %20 = add nsw i32 %19, 1
  store i32 %20, i32* %1, align 4
  br label %9

21:                                               ; preds = %9
  store i32 1, i32* %2, align 4
  br label %22

22:                                               ; preds = %51, %21
  %23 = load i32, i32* %2, align 4
  %24 = load i32, i32* %4, align 4
  %25 = icmp sle i32 %23, %24
  br i1 %25, label %26, label %54

26:                                               ; preds = %22
  %27 = getelementptr inbounds [100 x i32], [100 x i32]* %6, i64 0, i64 0
  %28 = load i32, i32* %5, align 4
  %29 = sext i32 %28 to i64
  %30 = getelementptr inbounds i32, i32* %27, i64 %29
  %31 = getelementptr inbounds i32, i32* %30, i64 -1
  store i32* %31, i32** %7, align 8
  %32 = load i32*, i32** %7, align 8
  %33 = load i32, i32* %32, align 4
  store i32 %33, i32* %3, align 4
  store i32 1, i32* %1, align 4
  br label %34

34:                                               ; preds = %45, %26
  %35 = load i32, i32* %1, align 4
  %36 = load i32, i32* %5, align 4
  %37 = icmp slt i32 %35, %36
  br i1 %37, label %38, label %48

38:                                               ; preds = %34
  %39 = load i32*, i32** %7, align 8
  %40 = getelementptr inbounds i32, i32* %39, i64 -1
  %41 = load i32, i32* %40, align 4
  %42 = load i32*, i32** %7, align 8
  store i32 %41, i32* %42, align 4
  %43 = load i32*, i32** %7, align 8
  %44 = getelementptr inbounds i32, i32* %43, i32 -1
  store i32* %44, i32** %7, align 8
  br label %45

45:                                               ; preds = %38
  %46 = load i32, i32* %1, align 4
  %47 = add nsw i32 %46, 1
  store i32 %47, i32* %1, align 4
  br label %34

48:                                               ; preds = %34
  %49 = load i32, i32* %3, align 4
  %50 = load i32*, i32** %7, align 8
  store i32 %49, i32* %50, align 4
  br label %51

51:                                               ; preds = %48
  %52 = load i32, i32* %2, align 4
  %53 = add nsw i32 %52, 1
  store i32 %53, i32* %2, align 4
  br label %22

54:                                               ; preds = %22
  %55 = getelementptr inbounds [100 x i32], [100 x i32]* %6, i64 0, i64 0
  %56 = load i32, i32* %55, align 16
  %57 = call i32 (i8*, ...) @printf(i8* getelementptr inbounds ([3 x i8], [3 x i8]* @.str.1, i64 0, i64 0), i32 %56)
  store i32 1, i32* %1, align 4
  br label %58

58:                                               ; preds = %68, %54
  %59 = load i32, i32* %1, align 4
  %60 = load i32, i32* %5, align 4
  %61 = icmp slt i32 %59, %60
  br i1 %61, label %62, label %71

62:                                               ; preds = %58
  %63 = load i32, i32* %1, align 4
  %64 = sext i32 %63 to i64
  %65 = getelementptr inbounds [100 x i32], [100 x i32]* %6, i64 0, i64 %64
  %66 = load i32, i32* %65, align 4
  %67 = call i32 (i8*, ...) @printf(i8* getelementptr inbounds ([4 x i8], [4 x i8]* @.str.2, i64 0, i64 0), i32 %66)
  br label %68

68:                                               ; preds = %62
  %69 = load i32, i32* %1, align 4
  %70 = add nsw i32 %69, 1
  store i32 %70, i32* %1, align 4
  br label %58

71:                                               ; preds = %58
  ret void
}

declare dso_local i32 @__isoc99_scanf(i8*, ...) #1

declare dso_local i32 @printf(i8*, ...) #1


!llvm.module.flags = !{!0}
!llvm.ident = !{!1}

!0 = !{i32 1, !"wchar_size", i32 4}
!1 = !{!"clang version 10.0.0-4ubuntu1 "}
